; ModuleID = '20/82.c'
source_filename = "20/82.c"
target datalayout = "e-m:e-p270:32:32-p271:32:32-p272:64:64-i64:64-f80:128-n8:16:32:64-S128"
target triple = "x86_64-pc-linux-gnu"

@.str = private unnamed_addr constant [4 x i8] c"%s\0A\00", align 1

; Function Attrs: noinline nounwind uwtable
define dso_local void @main() #0 {
  %1 = alloca [15 x i8], align 1
  %2 = alloca [15 x i8], align 1
  %3 = alloca i8, align 1
  %4 = alloca i32, align 4
  %5 = alloca i32, align 4
  %6 = alloca i32, align 4
  %7 = alloca i32, align 4
  store i8 0, i8* %3, align 1
  store i32 0, i32* %7, align 4
  br label %8

8:                                                ; preds = %0, %103
  store i8 0, i8* %3, align 1
  %9 = call i32 @getchar()
  %10 = trunc i32 %9 to i8
  %11 = getelementptr inbounds [15 x i8], [15 x i8]* %1, i64 0, i64 0
  store i8 %10, i8* %11, align 1
  %12 = sext i8 %10 to i32
  %13 = icmp eq i32 %12, -1
  br i1 %13, label %14, label %15

14:                                               ; preds = %8
  call void @exit(i32 -1) #4
  unreachable

15:                                               ; preds = %8
  %16 = getelementptr inbounds [15 x i8], [15 x i8]* %1, i64 0, i64 1
  %17 = call i32 (i8*, ...) bitcast (i32 (...)* @gets to i32 (i8*, ...)*)(i8* %16)
  %18 = getelementptr inbounds [15 x i8], [15 x i8]* %1, i64 0, i64 0
  %19 = call i64 @strlen(i8* %18) #5
  %20 = trunc i64 %19 to i32
  store i32 %20, i32* %6, align 4
  %21 = load i32, i32* %6, align 4
  %22 = sub nsw i32 %21, 5
  store i32 %22, i32* %4, align 4
  br label %23

23:                                               ; preds = %42, %15
  %24 = load i32, i32* %4, align 4
  %25 = icmp sge i32 %24, 0
  br i1 %25, label %26, label %45

26:                                               ; preds = %23
  %27 = load i32, i32* %4, align 4
  %28 = sext i32 %27 to i64
  %29 = getelementptr inbounds [15 x i8], [15 x i8]* %1, i64 0, i64 %28
  %30 = load i8, i8* %29, align 1
  %31 = sext i8 %30 to i32
  %32 = load i8, i8* %3, align 1
  %33 = sext i8 %32 to i32
  %34 = icmp sge i32 %31, %33
  br i1 %34, label %35, label %41

35:                                               ; preds = %26
  %36 = load i32, i32* %4, align 4
  store i32 %36, i32* %7, align 4
  %37 = load i32, i32* %4, align 4
  %38 = sext i32 %37 to i64
  %39 = getelementptr inbounds [15 x i8], [15 x i8]* %1, i64 0, i64 %38
  %40 = load i8, i8* %39, align 1
  store i8 %40, i8* %3, align 1
  br label %41

41:                                               ; preds = %35, %26
  br label %42

42:                                               ; preds = %41
  %43 = load i32, i32* %4, align 4
  %44 = add nsw i32 %43, -1
  store i32 %44, i32* %4, align 4
  br label %23

45:                                               ; preds = %23
  store i32 0, i32* %4, align 4
  br label %46

46:                                               ; preds = %58, %45
  %47 = load i32, i32* %4, align 4
  %48 = load i32, i32* %7, align 4
  %49 = icmp sle i32 %47, %48
  br i1 %49, label %50, label %61

50:                                               ; preds = %46
  %51 = load i32, i32* %4, align 4
  %52 = sext i32 %51 to i64
  %53 = getelementptr inbounds [15 x i8], [15 x i8]* %1, i64 0, i64 %52
  %54 = load i8, i8* %53, align 1
  %55 = load i32, i32* %4, align 4
  %56 = sext i32 %55 to i64
  %57 = getelementptr inbounds [15 x i8], [15 x i8]* %2, i64 0, i64 %56
  store i8 %54, i8* %57, align 1
  br label %58

58:                                               ; preds = %50
  %59 = load i32, i32* %4, align 4
  %60 = add nsw i32 %59, 1
  store i32 %60, i32* %4, align 4
  br label %46

61:                                               ; preds = %46
  %62 = load i32, i32* %7, align 4
  %63 = add nsw i32 %62, 1
  store i32 %63, i32* %4, align 4
  br label %64

64:                                               ; preds = %78, %61
  %65 = load i32, i32* %4, align 4
  %66 = load i32, i32* %6, align 4
  %67 = sub nsw i32 %66, 4
  %68 = icmp slt i32 %65, %67
  br i1 %68, label %69, label %81

69:                                               ; preds = %64
  %70 = load i32, i32* %4, align 4
  %71 = sext i32 %70 to i64
  %72 = getelementptr inbounds [15 x i8], [15 x i8]* %1, i64 0, i64 %71
  %73 = load i8, i8* %72, align 1
  %74 = load i32, i32* %4, align 4
  %75 = add nsw i32 %74, 3
  %76 = sext i32 %75 to i64
  %77 = getelementptr inbounds [15 x i8], [15 x i8]* %2, i64 0, i64 %76
  store i8 %73, i8* %77, align 1
  br label %78

78:                                               ; preds = %69
  %79 = load i32, i32* %4, align 4
  %80 = add nsw i32 %79, 1
  store i32 %80, i32* %4, align 4
  br label %64

81:                                               ; preds = %64
  %82 = load i32, i32* %6, align 4
  %83 = sub nsw i32 %82, 3
  store i32 %83, i32* %4, align 4
  store i32 1, i32* %5, align 4
  br label %84

84:                                               ; preds = %98, %81
  %85 = load i32, i32* %4, align 4
  %86 = load i32, i32* %6, align 4
  %87 = icmp slt i32 %85, %86
  br i1 %87, label %88, label %103

88:                                               ; preds = %84
  %89 = load i32, i32* %4, align 4
  %90 = sext i32 %89 to i64
  %91 = getelementptr inbounds [15 x i8], [15 x i8]* %1, i64 0, i64 %90
  %92 = load i8, i8* %91, align 1
  %93 = load i32, i32* %7, align 4
  %94 = load i32, i32* %5, align 4
  %95 = add nsw i32 %93, %94
  %96 = sext i32 %95 to i64
  %97 = getelementptr inbounds [15 x i8], [15 x i8]* %2, i64 0, i64 %96
  store i8 %92, i8* %97, align 1
  br label %98

98:                                               ; preds = %88
  %99 = load i32, i32* %4, align 4
  %100 = add nsw i32 %99, 1
  store i32 %100, i32* %4, align 4
  %101 = load i32, i32* %5, align 4
  %102 = add nsw i32 %101, 1
  store i32 %102, i32* %5, align 4
  br label %84

103:                                              ; preds = %84
  %104 = load i32, i32* %6, align 4
  %105 = sub nsw i32 %104, 1
  %106 = sext i32 %105 to i64
  %107 = getelementptr inbounds [15 x i8], [15 x i8]* %2, i64 0, i64 %106
  store i8 0, i8* %107, align 1
  %108 = getelementptr inbounds [15 x i8], [15 x i8]* %2, i64 0, i64 0
  %109 = call i32 (i8*, ...) @printf(i8* getelementptr inbounds ([4 x i8], [4 x i8]* @.str, i64 0, i64 0), i8* %108)
  br label %8
}

declare dso_local i32 @getchar() #1

; Function Attrs: noreturn nounwind
declare dso_local void @exit(i32) #2

declare dso_local i32 @gets(...) #1

; Function Attrs: nounwind readonly
declare dso_local i64 @strlen(i8*) #3

declare dso_local i32 @printf(i8*, ...) #1


!llvm.module.flags = !{!0}
!llvm.ident = !{!1}

!0 = !{i32 1, !"wchar_size", i32 4}
!1 = !{!"clang version 10.0.0-4ubuntu1 "}
